target datalayout = "e-m:e-p270:32:32-p271:32:32-p272:64:64-i64:64-i128:128-f80:128-n8:16:32:64-S128"
target triple = "x86_64-unknown-linux-gnu"

%"class.v8::IndirectHandleBase" = type { ptr }
%"class.v8::Local.316" = type { %"class.v8::LocalBase.317" }
%"class.v8::LocalBase.317" = type { %"class.v8::IndirectHandleBase" }
%"class.v8::Maybe" = type { i8, i8 }
%"class.v8::Local.328" = type { %"class.v8::LocalBase.329" }
%"class.v8::LocalBase.329" = type { %"class.v8::IndirectHandleBase" }
%class.anon = type { ptr, ptr, ptr, ptr }

; Function Attrs: mustprogress nounwind uwtable
define linkonce_odr dso_local void @_ZN4node3USEIN2v85MaybeIbEEEEvOT_(ptr noundef nonnull align 1 dereferenceable(2) %0) #4 comdat {
entry:
  %.addr = alloca ptr, align 8
  store ptr %0, ptr %.addr, align 8
  ret void
}

; Function Attrs: mustprogress nounwind uwtable
define internal void @"_ZZN4node10contextify17ContextifyContext23PropertyDefinerCallbackEN2v85LocalINS2_4NameEEERKNS2_18PropertyDescriptorERKNS2_20PropertyCallbackInfoINS2_5ValueEEEENK3$_0clEPS6_"(ptr noundef nonnull align 8 dereferenceable(32) %this, ptr noundef %desc_for_sandbox) #4 align 2 {
entry:
  %slot.addr.i = alloca ptr, align 8
  %this.addr.i.i = alloca ptr, align 8
  %this.addr.i15 = alloca ptr, align 8
  %this.addr.i = alloca ptr, align 8
  %this.addr = alloca ptr, align 8
  %desc_for_sandbox.addr = alloca ptr, align 8
  %ref.tmp = alloca %"class.v8::Maybe", align 1
  %agg.tmp = alloca %"class.v8::Local.316", align 8
  %agg.tmp8 = alloca %"class.v8::Local.328", align 8
  store ptr %this, ptr %this.addr, align 8
  store ptr %desc_for_sandbox, ptr %desc_for_sandbox.addr, align 8
  %this1 = load ptr, ptr %this.addr, align 8
  %0 = getelementptr inbounds %class.anon, ptr %this1, i32 0, i32 0
  %1 = load ptr, ptr %0, align 8
  %call = call noundef zeroext i1 @_ZNK2v818PropertyDescriptor14has_enumerableEv(ptr noundef nonnull align 8 dereferenceable(8) %1)
  br i1 %call, label %if.then, label %if.end

if.then:                                          ; preds = %entry
  %2 = load ptr, ptr %desc_for_sandbox.addr, align 8
  %3 = getelementptr inbounds %class.anon, ptr %this1, i32 0, i32 0
  %4 = load ptr, ptr %3, align 8
  %call2 = call noundef zeroext i1 @_ZNK2v818PropertyDescriptor10enumerableEv(ptr noundef nonnull align 8 dereferenceable(8) %4)
  call void @_ZN2v818PropertyDescriptor14set_enumerableEb(ptr noundef nonnull align 8 dereferenceable(8) %2, i1 noundef zeroext %call2)
  br label %if.end

if.end:                                           ; preds = %if.then, %entry
  %5 = getelementptr inbounds %class.anon, ptr %this1, i32 0, i32 0
  %6 = load ptr, ptr %5, align 8
  %call3 = call noundef zeroext i1 @_ZNK2v818PropertyDescriptor16has_configurableEv(ptr noundef nonnull align 8 dereferenceable(8) %6)
  br i1 %call3, label %if.then4, label %if.end6

if.then4:                                         ; preds = %if.end
  %7 = load ptr, ptr %desc_for_sandbox.addr, align 8
  %8 = getelementptr inbounds %class.anon, ptr %this1, i32 0, i32 0
  %9 = load ptr, ptr %8, align 8
  %call5 = call noundef zeroext i1 @_ZNK2v818PropertyDescriptor12configurableEv(ptr noundef nonnull align 8 dereferenceable(8) %9)
  call void @_ZN2v818PropertyDescriptor16set_configurableEb(ptr noundef nonnull align 8 dereferenceable(8) %7, i1 noundef zeroext %call5)
  br label %if.end6

if.end6:                                          ; preds = %if.then4, %if.end
  %10 = getelementptr inbounds %class.anon, ptr %this1, i32 0, i32 1
  %11 = load ptr, ptr %10, align 8
  store ptr %11, ptr %this.addr.i, align 8
  %this1.i = load ptr, ptr %this.addr.i, align 8
  store ptr %this1.i, ptr %this.addr.i15, align 8
  %this1.i16 = load ptr, ptr %this.addr.i15, align 8
  store ptr %this1.i16, ptr %this.addr.i.i, align 8
  %this1.i.i = load ptr, ptr %this.addr.i.i, align 8
  %12 = load ptr, ptr %this1.i.i, align 8
  store ptr %12, ptr %slot.addr.i, align 8
  %13 = load ptr, ptr %slot.addr.i, align 8
  %14 = getelementptr inbounds %class.anon, ptr %this1, i32 0, i32 2
  %15 = load ptr, ptr %14, align 8
  call void @llvm.memcpy.p0.p0.i64(ptr align 8 %agg.tmp, ptr align 8 %15, i64 8, i1 false)
  %16 = getelementptr inbounds %class.anon, ptr %this1, i32 0, i32 3
  %17 = load ptr, ptr %16, align 8
  call void @llvm.memcpy.p0.p0.i64(ptr align 8 %agg.tmp8, ptr align 8 %17, i64 8, i1 false)
  %18 = load ptr, ptr %desc_for_sandbox.addr, align 8
  %coerce.dive = getelementptr inbounds %"class.v8::Local.316", ptr %agg.tmp, i32 0, i32 0
  %coerce.dive9 = getelementptr inbounds %"class.v8::LocalBase.317", ptr %coerce.dive, i32 0, i32 0
  %coerce.dive10 = getelementptr inbounds %"class.v8::IndirectHandleBase", ptr %coerce.dive9, i32 0, i32 0
  %19 = load ptr, ptr %coerce.dive10, align 8
  %coerce.dive11 = getelementptr inbounds %"class.v8::Local.328", ptr %agg.tmp8, i32 0, i32 0
  %coerce.dive12 = getelementptr inbounds %"class.v8::LocalBase.329", ptr %coerce.dive11, i32 0, i32 0
  %coerce.dive13 = getelementptr inbounds %"class.v8::IndirectHandleBase", ptr %coerce.dive12, i32 0, i32 0
  %20 = load ptr, ptr %coerce.dive13, align 8
  %call14 = call i16 @_ZN2v86Object14DefinePropertyENS_5LocalINS_7ContextEEENS1_INS_4NameEEERNS_18PropertyDescriptorE(ptr noundef nonnull align 1 dereferenceable(1) %13, ptr %19, ptr %20, ptr noundef nonnull align 8 dereferenceable(8) %18)
  store i16 %call14, ptr %ref.tmp, align 1
  call void @_ZN4node3USEIN2v85MaybeIbEEEEvOT_(ptr noundef nonnull align 1 dereferenceable(2) %ref.tmp)
  ret void
}