; Function Attrs: mustprogress nounwind uwtable
define internal fastcc void @"_ZZN4node10contextify17ContextifyContext23PropertyDefinerCallbackEN2v85LocalINS2_4NameEEERKNS2_18PropertyDescriptorERKNS2_20PropertyCallbackInfoINS2_5ValueEEEENK3$_0clEPS6_"(ptr nocapture noundef nonnull readonly align 8 dereferenceable(32) %this, ptr noundef %desc_for_sandbox) unnamed_addr #3 align 2 {
entry:
  %0 = load ptr, ptr %this, align 8
  %call = tail call noundef zeroext i1 @_ZNK2v818PropertyDescriptor14has_enumerableEv(ptr noundef nonnull align 8 dereferenceable(8) %0) #21
  br i1 %call, label %if.then, label %if.end

if.then:                                          ; preds = %entry
  %1 = load ptr, ptr %this, align 8
  %call2 = tail call noundef zeroext i1 @_ZNK2v818PropertyDescriptor10enumerableEv(ptr noundef nonnull align 8 dereferenceable(8) %1) #21
  tail call void @_ZN2v818PropertyDescriptor14set_enumerableEb(ptr noundef nonnull align 8 dereferenceable(8) %desc_for_sandbox, i1 noundef zeroext %call2) #21
  br label %if.end

if.end:                                           ; preds = %if.then, %entry
  %2 = load ptr, ptr %this, align 8
  %call3 = tail call noundef zeroext i1 @_ZNK2v818PropertyDescriptor16has_configurableEv(ptr noundef nonnull align 8 dereferenceable(8) %2) #21
  br i1 %call3, label %if.then4, label %if.end6

if.then4:                                         ; preds = %if.end
  %3 = load ptr, ptr %this, align 8
  %call5 = tail call noundef zeroext i1 @_ZNK2v818PropertyDescriptor12configurableEv(ptr noundef nonnull align 8 dereferenceable(8) %3) #21
  tail call void @_ZN2v818PropertyDescriptor16set_configurableEb(ptr noundef nonnull align 8 dereferenceable(8) %desc_for_sandbox, i1 noundef zeroext %call5) #21
  br label %if.end6

if.end6:                                          ; preds = %if.then4, %if.end
  %4 = getelementptr inbounds i8, ptr %this, i64 8
  %5 = load ptr, ptr %4, align 8
  %6 = load ptr, ptr %5, align 8
  %7 = getelementptr inbounds i8, ptr %this, i64 16
  %8 = load ptr, ptr %7, align 8
  %agg.tmp.sroa.0.0.copyload = load ptr, ptr %8, align 8
  %9 = getelementptr inbounds i8, ptr %this, i64 24
  %10 = load ptr, ptr %9, align 8
  %agg.tmp8.sroa.0.0.copyload = load ptr, ptr %10, align 8
  %call14 = tail call i16 @_ZN2v86Object14DefinePropertyENS_5LocalINS_7ContextEEENS1_INS_4NameEEERNS_18PropertyDescriptorE(ptr noundef nonnull align 1 dereferenceable(1) %6, ptr %agg.tmp.sroa.0.0.copyload, ptr %agg.tmp8.sroa.0.0.copyload, ptr noundef nonnull align 8 dereferenceable(8) %desc_for_sandbox) #21
  ret void
}